target datalayout = "e-m:e-p270:32:32-p271:32:32-p272:64:64-i64:64-i128:128-f80:128-n8:16:32:64-S128"
target triple = "x86_64-pc-linux-gnu"

%struct.string_list = type { ptr, i64, i64, i8, ptr }
%struct.string_list_item = type { ptr, ptr }

; Function Attrs: nounwind uwtable
define internal i32 @compare_by_list(ptr noundef %0, ptr noundef %1) #0 {
  %3 = alloca i32, align 4
  %4 = alloca ptr, align 8
  %5 = alloca ptr, align 8
  %6 = alloca ptr, align 8
  %7 = alloca ptr, align 8
  %8 = alloca ptr, align 8
  %9 = alloca ptr, align 8
  %10 = alloca i32, align 4
  store ptr %0, ptr %4, align 8, !tbaa !147
  store ptr %1, ptr %5, align 8, !tbaa !147
  call void @llvm.lifetime.start.p0(i64 8, ptr %6) #10
  %11 = load ptr, ptr %4, align 8, !tbaa !147
  store ptr %11, ptr %6, align 8, !tbaa !52
  call void @llvm.lifetime.start.p0(i64 8, ptr %7) #10
  %12 = load ptr, ptr %5, align 8, !tbaa !147
  store ptr %12, ptr %7, align 8, !tbaa !52
  call void @llvm.lifetime.start.p0(i64 8, ptr %8) #10
  %13 = load ptr, ptr %6, align 8, !tbaa !52
  %14 = getelementptr inbounds nuw %struct.string_list_item, ptr %13, i32 0, i32 1
  %15 = load ptr, ptr %14, align 8, !tbaa !158
  store ptr %15, ptr %8, align 8, !tbaa !159
  call void @llvm.lifetime.start.p0(i64 8, ptr %9) #10
  %16 = load ptr, ptr %7, align 8, !tbaa !52
  %17 = getelementptr inbounds nuw %struct.string_list_item, ptr %16, i32 0, i32 1
  %18 = load ptr, ptr %17, align 8, !tbaa !158
  store ptr %18, ptr %9, align 8, !tbaa !159
  %19 = load ptr, ptr %8, align 8, !tbaa !159
  %20 = getelementptr inbounds nuw %struct.string_list, ptr %19, i32 0, i32 1
  %21 = load i64, ptr %20, align 8, !tbaa !160
  %22 = load ptr, ptr %9, align 8, !tbaa !159
  %23 = getelementptr inbounds nuw %struct.string_list, ptr %22, i32 0, i32 1
  %24 = load i64, ptr %23, align 8, !tbaa !160
  %25 = icmp ult i64 %21, %24
  br i1 %25, label %26, label %27

26:                                               ; preds = %2
  store i32 1, ptr %3, align 4
  store i32 1, ptr %10, align 4
  br label %37

27:                                               ; preds = %2
  %28 = load ptr, ptr %8, align 8, !tbaa !159
  %29 = getelementptr inbounds nuw %struct.string_list, ptr %28, i32 0, i32 1
  %30 = load i64, ptr %29, align 8, !tbaa !160
  %31 = load ptr, ptr %9, align 8, !tbaa !159
  %32 = getelementptr inbounds nuw %struct.string_list, ptr %31, i32 0, i32 1
  %33 = load i64, ptr %32, align 8, !tbaa !160
  %34 = icmp eq i64 %30, %33
  br i1 %34, label %35, label %36

35:                                               ; preds = %27
  store i32 0, ptr %3, align 4
  store i32 1, ptr %10, align 4
  br label %37

36:                                               ; preds = %27
  store i32 -1, ptr %3, align 4
  store i32 1, ptr %10, align 4
  br label %37

37:                                               ; preds = %36, %35, %26
  call void @llvm.lifetime.end.p0(i64 8, ptr %9) #10
  call void @llvm.lifetime.end.p0(i64 8, ptr %8) #10
  call void @llvm.lifetime.end.p0(i64 8, ptr %7) #10
  call void @llvm.lifetime.end.p0(i64 8, ptr %6) #10
  %38 = load i32, ptr %3, align 4
  ret i32 %38
}