; Function Attrs: mustprogress nofree norecurse nosync nounwind willreturn memory(read, inaccessiblemem: none) uwtable
define internal range(i32 -1, 2) i32 @compare_by_list(ptr noundef readonly captures(none) %0, ptr noundef readonly captures(none) %1) #12 {
  %3 = getelementptr inbounds nuw i8, ptr %0, i64 8
  %4 = load ptr, ptr %3, align 8, !tbaa !140
  %5 = getelementptr inbounds nuw i8, ptr %1, i64 8
  %6 = load ptr, ptr %5, align 8, !tbaa !140
  %7 = getelementptr inbounds nuw i8, ptr %4, i64 8
  %8 = load i64, ptr %7, align 8, !tbaa !141
  %9 = getelementptr inbounds nuw i8, ptr %6, i64 8
  %10 = load i64, ptr %9, align 8, !tbaa !141
  %.0 = tail call i32 @llvm.ucmp.i32.i64(i64 %10, i64 %8)
  ret i32 %.0
}